target datalayout = "e-m:e-p270:32:32-p271:32:32-p272:64:64-i64:64-i128:128-f80:128-n8:16:32:64-S128"
target triple = "x86_64-pc-linux-gnu"

%"class.icu_77::UObject" = type { ptr }
%"class.icu_77::UnicodeString" = type { %"class.icu_77::Replaceable", %"union.icu_77::UnicodeString::StackBufferOrFields" }
%"class.icu_77::Replaceable" = type { %"class.icu_77::UObject" }
%"union.icu_77::UnicodeString::StackBufferOrFields" = type { %struct.anon.0, [32 x i8] }
%struct.anon.0 = type { i16, i32, i32, ptr }
%"class.icu_77::Char16Ptr" = type { ptr }
%"class.icu_77::Formattable" = type { %"class.icu_77::UObject", %union.anon.2, ptr, ptr, i32, %"class.icu_77::UnicodeString" }
%union.anon.2 = type { %struct.anon.3 }
%struct.anon.3 = type { ptr, i32 }
%"class.icu_77::number::impl::DecimalQuantity" = type <{ %"class.icu_77::IFixedDecimal", i8, [3 x i8], i32, i32, i8, i8, [2 x i8], double, i32, i32, i32, i32, %union.anon, i8, i8, [6 x i8] }>
%"class.icu_77::IFixedDecimal" = type { ptr }
%union.anon = type { %struct.anon.1 }
%struct.anon.1 = type { ptr, i32 }
%struct.anon = type { i16, [27 x i16] }

@_ZTIN6icu_7712NumberFormatE = external constant ptr
@_ZTIN6icu_7713DecimalFormatE = external constant ptr
@_ZTVN6icu_777UObjectE = available_externally unnamed_addr constant { [5 x ptr] } { [5 x ptr] [ptr null, ptr @_ZTIN6icu_777UObjectE, ptr @_ZN6icu_777UObjectD1Ev, ptr @_ZN6icu_777UObjectD0Ev, ptr @_ZNK6icu_777UObject17getDynamicClassIDEv] }, align 8

; Function Attrs: inlinehint mustprogress nounwind uwtable
define linkonce_odr void @_ZN6icu_777UObjectC2Ev(ptr noundef nonnull align 8 dereferenceable(8) %0) unnamed_addr #2 comdat align 2 {
  %2 = alloca ptr, align 8
  store ptr %0, ptr %2, align 8, !tbaa !63
  %3 = load ptr, ptr %2, align 8
  store ptr getelementptr inbounds inrange(-16, 24) ({ [5 x ptr] }, ptr @_ZTVN6icu_777UObjectE, i32 0, i32 0, i32 2), ptr %3, align 8, !tbaa !27
  ret void
}

; Function Attrs: inlinehint mustprogress nounwind uwtable
define linkonce_odr void @_ZN6icu_7711ReplaceableC2Ev(ptr noundef nonnull align 8 dereferenceable(8) %0) unnamed_addr #2 comdat align 2 {
  %2 = alloca ptr, align 8
  store ptr %0, ptr %2, align 8, !tbaa !61
  %3 = load ptr, ptr %2, align 8
  call void @_ZN6icu_777UObjectC2Ev(ptr noundef nonnull align 8 dereferenceable(8) %3) #11
  store ptr getelementptr inbounds inrange(-16, 88) ({ [13 x ptr] }, ptr @_ZTVN6icu_7711ReplaceableE, i32 0, i32 0, i32 2), ptr %3, align 8, !tbaa !27
  ret void
}

; Function Attrs: inlinehint mustprogress uwtable
define linkonce_odr void @_ZN6icu_7713UnicodeStringC2Ev(ptr noundef nonnull align 8 dereferenceable(64) %0) unnamed_addr #3 comdat align 2 {
  %2 = alloca ptr, align 8
  store ptr %0, ptr %2, align 8, !tbaa !58
  %3 = load ptr, ptr %2, align 8
  call void @_ZN6icu_7711ReplaceableC2Ev(ptr noundef nonnull align 8 dereferenceable(8) %3)
  store ptr getelementptr inbounds inrange(-16, 88) ({ [13 x ptr] }, ptr @_ZTVN6icu_7713UnicodeStringE, i32 0, i32 0, i32 2), ptr %3, align 8, !tbaa !27
  %4 = getelementptr inbounds nuw %"class.icu_77::UnicodeString", ptr %3, i32 0, i32 1
  %5 = getelementptr inbounds nuw %struct.anon, ptr %4, i32 0, i32 0
  store i16 2, ptr %5, align 8, !tbaa !60
  ret void
}

; Function Attrs: inlinehint mustprogress nounwind uwtable
define internal noundef signext i8 @_ZL9U_SUCCESS10UErrorCode(i32 noundef %0) #2 {
  %2 = alloca i32, align 4
  store i32 %0, ptr %2, align 4, !tbaa !15
  %3 = load i32, ptr %2, align 4, !tbaa !15
  %4 = icmp sle i32 %3, 0
  %5 = zext i1 %4 to i8
  ret i8 %5
}

; Function Attrs: inlinehint mustprogress nounwind uwtable
define linkonce_odr void @_ZN6icu_779Char16PtrD2Ev(ptr noundef nonnull align 8 dereferenceable(8) %0) unnamed_addr #2 comdat align 2 {
  %2 = alloca ptr, align 8
  store ptr %0, ptr %2, align 8, !tbaa !33
  %3 = load ptr, ptr %2, align 8
  %4 = getelementptr inbounds nuw %"class.icu_77::Char16Ptr", ptr %3, i32 0, i32 0
  %5 = load ptr, ptr %4, align 8, !tbaa !35
  call void asm sideeffect "", "rm,~{memory},~{dirflag},~{fpsr},~{flags}"(ptr %5) #11, !srcloc !37
  ret void
}

; Function Attrs: inlinehint mustprogress nounwind uwtable
define linkonce_odr void @_ZN6icu_779Char16PtrC2EPDs(ptr noundef nonnull align 8 dereferenceable(8) %0, ptr noundef %1) unnamed_addr #2 comdat align 2 {
  %3 = alloca ptr, align 8
  %4 = alloca ptr, align 8
  store ptr %0, ptr %3, align 8, !tbaa !33
  store ptr %1, ptr %4, align 8, !tbaa !31
  %5 = load ptr, ptr %3, align 8
  %6 = getelementptr inbounds nuw %"class.icu_77::Char16Ptr", ptr %5, i32 0, i32 0
  %7 = load ptr, ptr %4, align 8, !tbaa !31
  store ptr %7, ptr %6, align 8, !tbaa !35
  ret void
}

; Function Attrs: mustprogress uwtable
define internal void @_ZN12_GLOBAL__N_16selectERKN6icu_7711PluralRulesERKNS0_11FormattableERKNS0_12NumberFormatER10UErrorCode(ptr dead_on_unwind noalias writable sret(%"class.icu_77::UnicodeString") align 8 %0, ptr noundef nonnull align 8 dereferenceable(28) %1, ptr noundef nonnull align 8 dereferenceable(112) %2, ptr noundef nonnull align 8 dereferenceable(60) %3, ptr noundef nonnull align 4 dereferenceable(4) %4) #1 personality ptr @__gxx_personality_v0 {
  %6 = alloca ptr, align 8
  %7 = alloca ptr, align 8
  %8 = alloca ptr, align 8
  %9 = alloca ptr, align 8
  %10 = alloca ptr, align 8
  %11 = alloca ptr, align 8
  %12 = alloca %"class.icu_77::number::impl::DecimalQuantity", align 8
  %13 = alloca ptr, align 8
  %14 = alloca i32, align 4
  %15 = alloca i32, align 4
  %16 = alloca double, align 8
  store ptr %0, ptr %6, align 8
  store ptr %1, ptr %7, align 8, !tbaa !48
  store ptr %2, ptr %8, align 8, !tbaa !52
  store ptr %3, ptr %9, align 8, !tbaa !50
  store ptr %4, ptr %10, align 8, !tbaa !22
  %17 = load ptr, ptr %10, align 8, !tbaa !22
  %18 = load i32, ptr %17, align 4, !tbaa !15
  %19 = call noundef signext i8 @_ZL9U_SUCCESS10UErrorCode(i32 noundef %18)
  %20 = icmp ne i8 %19, 0
  br i1 %20, label %21, label %71

21:                                               ; preds = %5
  call void @llvm.lifetime.start.p0(i64 8, ptr %11) #11
  %22 = load ptr, ptr %9, align 8, !tbaa !50
  %23 = icmp eq ptr %22, null
  br i1 %23, label %26, label %24

24:                                               ; preds = %21
  %25 = call ptr @__dynamic_cast(ptr %22, ptr @_ZTIN6icu_7712NumberFormatE, ptr @_ZTIN6icu_7713DecimalFormatE, i64 0) #11
  br label %27

26:                                               ; preds = %21
  br label %27

27:                                               ; preds = %26, %24
  %28 = phi ptr [ %25, %24 ], [ null, %26 ]
  store ptr %28, ptr %11, align 8, !tbaa !54
  %29 = load ptr, ptr %11, align 8, !tbaa !54
  %30 = icmp ne ptr %29, null
  br i1 %30, label %31, label %52

31:                                               ; preds = %27
  call void @llvm.lifetime.start.p0(i64 72, ptr %12) #11
  call void @_ZN6icu_776number4impl15DecimalQuantityC1Ev(ptr noundef nonnull align 8 dereferenceable(66) %12)
  %32 = load ptr, ptr %11, align 8, !tbaa !54
  %33 = load ptr, ptr %8, align 8, !tbaa !52
  %34 = load ptr, ptr %10, align 8, !tbaa !22
  invoke void @_ZNK6icu_7713DecimalFormat23formatToDecimalQuantityERKNS_11FormattableERNS_6number4impl15DecimalQuantityER10UErrorCode(ptr noundef nonnull align 8 dereferenceable(72) %32, ptr noundef nonnull align 8 dereferenceable(112) %33, ptr noundef nonnull align 8 dereferenceable(66) %12, ptr noundef nonnull align 4 dereferenceable(4) %34)
          to label %35 unwind label %44

35:                                               ; preds = %31
  %36 = load ptr, ptr %10, align 8, !tbaa !22
  %37 = load i32, ptr %36, align 4, !tbaa !15
  %38 = invoke noundef signext i8 @_ZL9U_SUCCESS10UErrorCode(i32 noundef %37)
          to label %39 unwind label %44

39:                                               ; preds = %35
  %40 = icmp ne i8 %38, 0
  br i1 %40, label %41, label %48

41:                                               ; preds = %39
  %42 = load ptr, ptr %7, align 8, !tbaa !48
  invoke void @_ZNK6icu_7711PluralRules6selectERKNS_13IFixedDecimalE(ptr dead_on_unwind writable sret(%"class.icu_77::UnicodeString") align 8 %0, ptr noundef nonnull align 8 dereferenceable(28) %42, ptr noundef nonnull align 8 dereferenceable(8) %12)
          to label %43 unwind label %44

43:                                               ; preds = %41
  store i32 1, ptr %15, align 4
  br label %49

44:                                               ; preds = %41, %35, %31
  %45 = landingpad { ptr, i32 }
          cleanup
  %46 = extractvalue { ptr, i32 } %45, 0
  store ptr %46, ptr %13, align 8
  %47 = extractvalue { ptr, i32 } %45, 1
  store i32 %47, ptr %14, align 4
  call void @_ZN6icu_776number4impl15DecimalQuantityD1Ev(ptr noundef nonnull align 8 dereferenceable(66) %12) #11
  call void @llvm.lifetime.end.p0(i64 72, ptr %12) #11
  call void @llvm.lifetime.end.p0(i64 8, ptr %11) #11
  br label %73

48:                                               ; preds = %39
  store i32 0, ptr %15, align 4
  br label %49

49:                                               ; preds = %48, %43
  call void @_ZN6icu_776number4impl15DecimalQuantityD1Ev(ptr noundef nonnull align 8 dereferenceable(66) %12) #11
  call void @llvm.lifetime.end.p0(i64 72, ptr %12) #11
  %50 = load i32, ptr %15, align 4
  switch i32 %50, label %68 [
    i32 0, label %51
  ]

51:                                               ; preds = %49
  br label %67

52:                                               ; preds = %27
  call void @llvm.lifetime.start.p0(i64 8, ptr %16) #11
  %53 = load ptr, ptr %8, align 8, !tbaa !52
  %54 = load ptr, ptr %10, align 8, !tbaa !22
  %55 = call noundef double @_ZNK6icu_7711Formattable9getDoubleER10UErrorCode(ptr noundef nonnull align 8 dereferenceable(112) %53, ptr noundef nonnull align 4 dereferenceable(4) %54)
  store double %55, ptr %16, align 8, !tbaa !29
  %56 = load ptr, ptr %10, align 8, !tbaa !22
  %57 = load i32, ptr %56, align 4, !tbaa !15
  %58 = call noundef signext i8 @_ZL9U_SUCCESS10UErrorCode(i32 noundef %57)
  %59 = icmp ne i8 %58, 0
  br i1 %59, label %60, label %63

60:                                               ; preds = %52
  %61 = load ptr, ptr %7, align 8, !tbaa !48
  %62 = load double, ptr %16, align 8, !tbaa !29
  call void @_ZNK6icu_7711PluralRules6selectEd(ptr dead_on_unwind writable sret(%"class.icu_77::UnicodeString") align 8 %0, ptr noundef nonnull align 8 dereferenceable(28) %61, double noundef %62)
  store i32 1, ptr %15, align 4
  br label %64

63:                                               ; preds = %52
  store i32 0, ptr %15, align 4
  br label %64

64:                                               ; preds = %63, %60
  call void @llvm.lifetime.end.p0(i64 8, ptr %16) #11
  %65 = load i32, ptr %15, align 4
  switch i32 %65, label %68 [
    i32 0, label %66
  ]

66:                                               ; preds = %64
  br label %67

67:                                               ; preds = %66, %51
  store i32 0, ptr %15, align 4
  br label %68

68:                                               ; preds = %67, %64, %49
  call void @llvm.lifetime.end.p0(i64 8, ptr %11) #11
  %69 = load i32, ptr %15, align 4
  switch i32 %69, label %78 [
    i32 0, label %70
    i32 1, label %72
  ]

70:                                               ; preds = %68
  br label %71

71:                                               ; preds = %70, %5
  call void @_ZN6icu_7713UnicodeStringC2Ev(ptr noundef nonnull align 8 dereferenceable(64) %0)
  br label %72

72:                                               ; preds = %71, %68
  ret void

73:                                               ; preds = %44
  %74 = load ptr, ptr %13, align 8
  %75 = load i32, ptr %14, align 4
  %76 = insertvalue { ptr, i32 } poison, ptr %74, 0
  %77 = insertvalue { ptr, i32 } %76, i32 %75, 1
  resume { ptr, i32 } %77

78:                                               ; preds = %68
  unreachable
}

; Function Attrs: inlinehint mustprogress nounwind uwtable
define internal noundef signext i8 @_ZL9U_FAILURE10UErrorCode(i32 noundef %0) #2 {
  %2 = alloca i32, align 4
  store i32 %0, ptr %2, align 4, !tbaa !15
  %3 = load i32, ptr %2, align 4, !tbaa !15
  %4 = icmp sgt i32 %3, 0
  %5 = zext i1 %4 to i8
  ret i8 %5
}

; Function Attrs: mustprogress uwtable
define i32 @uplrules_selectWithFormat_77(ptr noundef %0, double noundef %1, ptr noundef %2, ptr noundef %3, i32 noundef %4, ptr noundef %5) #1 personality ptr @__gxx_personality_v0 {
  %7 = alloca i32, align 4
  %8 = alloca ptr, align 8
  %9 = alloca double, align 8
  %10 = alloca ptr, align 8
  %11 = alloca ptr, align 8
  %12 = alloca i32, align 4
  %13 = alloca ptr, align 8
  %14 = alloca ptr, align 8
  %15 = alloca ptr, align 8
  %16 = alloca i32, align 4
  %17 = alloca %"class.icu_77::Formattable", align 8
  %18 = alloca %"class.icu_77::UnicodeString", align 8
  %19 = alloca ptr, align 8
  %20 = alloca i32, align 4
  %21 = alloca %"class.icu_77::Char16Ptr", align 8
  store ptr %0, ptr %8, align 8, !tbaa !25
  store double %1, ptr %9, align 8, !tbaa !29
  store ptr %2, ptr %10, align 8, !tbaa !46
  store ptr %3, ptr %11, align 8, !tbaa !31
  store i32 %4, ptr %12, align 4, !tbaa !14
  store ptr %5, ptr %13, align 8, !tbaa !22
  %22 = load ptr, ptr %13, align 8, !tbaa !22
  %23 = load i32, ptr %22, align 4, !tbaa !15
  %24 = call noundef signext i8 @_ZL9U_FAILURE10UErrorCode(i32 noundef %23)
  %25 = icmp ne i8 %24, 0
  br i1 %25, label %26, label %27

26:                                               ; preds = %6
  store i32 0, ptr %7, align 4
  br label %73

27:                                               ; preds = %6
  call void @llvm.lifetime.start.p0(i64 8, ptr %14) #11
  %28 = load ptr, ptr %8, align 8, !tbaa !25
  store ptr %28, ptr %14, align 8, !tbaa !48
  call void @llvm.lifetime.start.p0(i64 8, ptr %15) #11
  %29 = load ptr, ptr %10, align 8, !tbaa !46
  store ptr %29, ptr %15, align 8, !tbaa !50
  %30 = load ptr, ptr %14, align 8, !tbaa !48
  %31 = icmp eq ptr %30, null
  br i1 %31, label %44, label %32

32:                                               ; preds = %27
  %33 = load ptr, ptr %15, align 8, !tbaa !50
  %34 = icmp eq ptr %33, null
  br i1 %34, label %44, label %35

35:                                               ; preds = %32
  %36 = load ptr, ptr %11, align 8, !tbaa !31
  %37 = icmp eq ptr %36, null
  br i1 %37, label %38, label %41

38:                                               ; preds = %35
  %39 = load i32, ptr %12, align 4, !tbaa !14
  %40 = icmp ne i32 %39, 0
  br i1 %40, label %44, label %46

41:                                               ; preds = %35
  %42 = load i32, ptr %12, align 4, !tbaa !14
  %43 = icmp slt i32 %42, 0
  br i1 %43, label %44, label %46

44:                                               ; preds = %41, %38, %32, %27
  %45 = load ptr, ptr %13, align 8, !tbaa !22
  store i32 1, ptr %45, align 4, !tbaa !15
  store i32 0, ptr %7, align 4
  store i32 1, ptr %16, align 4
  br label %72

46:                                               ; preds = %41, %38
  call void @llvm.lifetime.start.p0(i64 112, ptr %17) #11
  %47 = load double, ptr %9, align 8, !tbaa !29
  call void @_ZN6icu_7711FormattableC1Ed(ptr noundef nonnull align 8 dereferenceable(112) %17, double noundef %47)
  call void @llvm.lifetime.start.p0(i64 64, ptr %18) #11
  %48 = load ptr, ptr %14, align 8, !tbaa !48
  %49 = load ptr, ptr %15, align 8, !tbaa !50
  %50 = load ptr, ptr %13, align 8, !tbaa !22
  invoke void @_ZN12_GLOBAL__N_16selectERKN6icu_7711PluralRulesERKNS0_11FormattableERKNS0_12NumberFormatER10UErrorCode(ptr dead_on_unwind writable sret(%"class.icu_77::UnicodeString") align 8 %18, ptr noundef nonnull align 8 dereferenceable(28) %48, ptr noundef nonnull align 8 dereferenceable(112) %17, ptr noundef nonnull align 8 dereferenceable(60) %49, ptr noundef nonnull align 4 dereferenceable(4) %50)
          to label %51 unwind label %58

51:                                               ; preds = %46
  %52 = load ptr, ptr %11, align 8, !tbaa !31
  invoke void @_ZN6icu_779Char16PtrC2EPDs(ptr noundef nonnull align 8 dereferenceable(8) %21, ptr noundef %52)
          to label %53 unwind label %62

53:                                               ; preds = %51
  %54 = load i32, ptr %12, align 4, !tbaa !14
  %55 = load ptr, ptr %13, align 8, !tbaa !22
  %56 = invoke noundef i32 @_ZNK6icu_7713UnicodeString7extractENS_9Char16PtrEiR10UErrorCode(ptr noundef nonnull align 8 dereferenceable(64) %18, ptr noundef %21, i32 noundef %54, ptr noundef nonnull align 4 dereferenceable(4) %55)
          to label %57 unwind label %66

57:                                               ; preds = %53
  store i32 %56, ptr %7, align 4
  call void @_ZN6icu_779Char16PtrD2Ev(ptr noundef nonnull align 8 dereferenceable(8) %21) #11
  store i32 1, ptr %16, align 4
  call void @_ZN6icu_7713UnicodeStringD1Ev(ptr noundef nonnull align 8 dereferenceable(64) %18) #11
  call void @llvm.lifetime.end.p0(i64 64, ptr %18) #11
  call void @_ZN6icu_7711FormattableD1Ev(ptr noundef nonnull align 8 dereferenceable(112) %17) #11
  call void @llvm.lifetime.end.p0(i64 112, ptr %17) #11
  br label %72

58:                                               ; preds = %46
  %59 = landingpad { ptr, i32 }
          cleanup
  %60 = extractvalue { ptr, i32 } %59, 0
  store ptr %60, ptr %19, align 8
  %61 = extractvalue { ptr, i32 } %59, 1
  store i32 %61, ptr %20, align 4
  br label %71

62:                                               ; preds = %51
  %63 = landingpad { ptr, i32 }
          cleanup
  %64 = extractvalue { ptr, i32 } %63, 0
  store ptr %64, ptr %19, align 8
  %65 = extractvalue { ptr, i32 } %63, 1
  store i32 %65, ptr %20, align 4
  br label %70

66:                                               ; preds = %53
  %67 = landingpad { ptr, i32 }
          cleanup
  %68 = extractvalue { ptr, i32 } %67, 0
  store ptr %68, ptr %19, align 8
  %69 = extractvalue { ptr, i32 } %67, 1
  store i32 %69, ptr %20, align 4
  call void @_ZN6icu_779Char16PtrD2Ev(ptr noundef nonnull align 8 dereferenceable(8) %21) #11
  br label %70

70:                                               ; preds = %66, %62
  call void @_ZN6icu_7713UnicodeStringD1Ev(ptr noundef nonnull align 8 dereferenceable(64) %18) #11
  br label %71

71:                                               ; preds = %70, %58
  call void @llvm.lifetime.end.p0(i64 64, ptr %18) #11
  call void @_ZN6icu_7711FormattableD1Ev(ptr noundef nonnull align 8 dereferenceable(112) %17) #11
  call void @llvm.lifetime.end.p0(i64 112, ptr %17) #11
  call void @llvm.lifetime.end.p0(i64 8, ptr %15) #11
  call void @llvm.lifetime.end.p0(i64 8, ptr %14) #11
  br label %75

72:                                               ; preds = %57, %44
  call void @llvm.lifetime.end.p0(i64 8, ptr %15) #11
  call void @llvm.lifetime.end.p0(i64 8, ptr %14) #11
  br label %73

73:                                               ; preds = %72, %26
  %74 = load i32, ptr %7, align 4
  ret i32 %74

75:                                               ; preds = %71
  %76 = load ptr, ptr %19, align 8
  %77 = load i32, ptr %20, align 4
  %78 = insertvalue { ptr, i32 } poison, ptr %76, 0
  %79 = insertvalue { ptr, i32 } %78, i32 %77, 1
  resume { ptr, i32 } %79
}