; Function Attrs: mustprogress uwtable
define noundef i32 @uplrules_selectWithFormat_77(ptr noundef %0, double noundef %1, ptr noundef %2, ptr noundef %3, i32 noundef %4, ptr noundef %5) local_unnamed_addr #1 personality ptr @__gxx_personality_v0 {
  %7 = alloca %"class.icu_77::number::impl::DecimalQuantity", align 8
  %8 = alloca %"class.icu_77::Formattable", align 8
  %9 = alloca %"class.icu_77::UnicodeString", align 8
  %10 = alloca %"class.icu_77::Char16Ptr", align 8
  %11 = load i32, ptr %5, align 4, !tbaa !13
  %12 = icmp slt i32 %11, 1
  br i1 %12, label %13, label %49

13:                                               ; preds = %6
  %14 = icmp eq ptr %0, null
  %15 = icmp eq ptr %2, null
  %or.cond = or i1 %14, %15
  br i1 %or.cond, label %21, label %16

16:                                               ; preds = %13
  %17 = icmp eq ptr %3, null
  br i1 %17, label %18, label %19

18:                                               ; preds = %16
  %.not23 = icmp eq i32 %4, 0
  br i1 %.not23, label %22, label %21

19:                                               ; preds = %16
  %20 = icmp slt i32 %4, 0
  br i1 %20, label %21, label %22

21:                                               ; preds = %19, %18, %13
  store i32 1, ptr %5, align 4, !tbaa !13
  br label %49

22:                                               ; preds = %19, %18
  call void @llvm.lifetime.start.p0(i64 112, ptr nonnull %8) #14
  call void @_ZN6icu_7711FormattableC1Ed(ptr noundef nonnull align 8 dereferenceable(112) %8, double noundef %1)
  call void @llvm.lifetime.start.p0(i64 64, ptr nonnull %9) #14
  call void @llvm.experimental.noalias.scope.decl(metadata !21)
  %23 = load i32, ptr %5, align 4, !tbaa !13, !noalias !21
  %24 = icmp sgt i32 %23, 0
  br i1 %24, label %.critedge23.thread.i, label %25

25:                                               ; preds = %22
  %26 = call ptr @__dynamic_cast(ptr nonnull align 8 dereferenceable(60) %2, ptr nonnull @_ZTIN6icu_7712NumberFormatE, ptr nonnull @_ZTIN6icu_7713DecimalFormatE, i64 0) #14, !noalias !21
  %.not19.i = icmp eq ptr %26, null
  br i1 %.not19.i, label %35, label %27

27:                                               ; preds = %25
  call void @llvm.lifetime.start.p0(i64 72, ptr nonnull %7) #14, !noalias !21
  invoke void @_ZN6icu_776number4impl15DecimalQuantityC1Ev(ptr noundef nonnull align 8 dereferenceable(66) %7)
          to label %.noexc unwind label %44

.noexc:                                           ; preds = %27
  invoke void @_ZNK6icu_7713DecimalFormat23formatToDecimalQuantityERKNS_11FormattableERNS_6number4impl15DecimalQuantityER10UErrorCode(ptr noundef nonnull align 8 dereferenceable(72) %26, ptr noundef nonnull align 8 dereferenceable(112) %8, ptr noundef nonnull align 8 dereferenceable(66) %7, ptr noundef nonnull align 4 dereferenceable(4) %5)
          to label %28 unwind label %32, !noalias !21

28:                                               ; preds = %.noexc
  %29 = load i32, ptr %5, align 4, !tbaa !13, !noalias !21
  %30 = icmp sgt i32 %29, 0
  br i1 %30, label %.critedge.i, label %31

31:                                               ; preds = %28
  invoke void @_ZNK6icu_7711PluralRules6selectERKNS_13IFixedDecimalE(ptr dead_on_unwind nonnull writable sret(%"class.icu_77::UnicodeString") align 8 %9, ptr noundef nonnull align 8 dereferenceable(28) %0, ptr noundef nonnull align 8 dereferenceable(8) %7)
          to label %34 unwind label %32

32:                                               ; preds = %31, %.noexc
  %33 = landingpad { ptr, i32 }
          cleanup
  call void @_ZN6icu_776number4impl15DecimalQuantityD1Ev(ptr noundef nonnull align 8 dereferenceable(66) %7) #14
  call void @llvm.lifetime.end.p0(i64 72, ptr nonnull %7) #14, !noalias !21
  br label %.body

34:                                               ; preds = %31
  call void @_ZN6icu_776number4impl15DecimalQuantityD1Ev(ptr noundef nonnull align 8 dereferenceable(66) %7) #14
  call void @llvm.lifetime.end.p0(i64 72, ptr nonnull %7) #14, !noalias !21
  br label %_ZN12_GLOBAL__N_16selectERKN6icu_7711PluralRulesERKNS0_11FormattableERKNS0_12NumberFormatER10UErrorCode.exit

35:                                               ; preds = %25
  %36 = invoke noundef double @_ZNK6icu_7711Formattable9getDoubleER10UErrorCode(ptr noundef nonnull align 8 dereferenceable(112) %8, ptr noundef nonnull align 4 dereferenceable(4) %5)
          to label %.noexc25 unwind label %44

.noexc25:                                         ; preds = %35
  %37 = load i32, ptr %5, align 4, !tbaa !13, !noalias !21
  %38 = icmp sgt i32 %37, 0
  br i1 %38, label %.critedge23.thread.i, label %39

39:                                               ; preds = %.noexc25
  invoke void @_ZNK6icu_7711PluralRules6selectEd(ptr dead_on_unwind nonnull writable sret(%"class.icu_77::UnicodeString") align 8 %9, ptr noundef nonnull align 8 dereferenceable(28) %0, double noundef %36)
          to label %_ZN12_GLOBAL__N_16selectERKN6icu_7711PluralRulesERKNS0_11FormattableERKNS0_12NumberFormatER10UErrorCode.exit unwind label %44

.critedge.i:                                      ; preds = %28
  call void @_ZN6icu_776number4impl15DecimalQuantityD1Ev(ptr noundef nonnull align 8 dereferenceable(66) %7) #14, !noalias !21
  call void @llvm.lifetime.end.p0(i64 72, ptr nonnull %7) #14, !noalias !21
  br label %.critedge23.thread.i

.critedge23.thread.i:                             ; preds = %.critedge.i, %.noexc25, %22
  store ptr getelementptr inbounds nuw inrange(-16, 88) (i8, ptr @_ZTVN6icu_7713UnicodeStringE, i64 16), ptr %9, align 8, !tbaa !15, !alias.scope !21
  %40 = getelementptr inbounds nuw i8, ptr %9, i64 8
  store i16 2, ptr %40, align 8, !tbaa !24, !alias.scope !21
  br label %_ZN12_GLOBAL__N_16selectERKN6icu_7711PluralRulesERKNS0_11FormattableERKNS0_12NumberFormatER10UErrorCode.exit

_ZN12_GLOBAL__N_16selectERKN6icu_7711PluralRulesERKNS0_11FormattableERKNS0_12NumberFormatER10UErrorCode.exit: ; preds = %.critedge23.thread.i, %34, %39
  store ptr %3, ptr %10, align 8, !tbaa !17
  %41 = invoke noundef i32 @_ZNK6icu_7713UnicodeString7extractENS_9Char16PtrEiR10UErrorCode(ptr noundef nonnull align 8 dereferenceable(64) %9, ptr noundef nonnull %10, i32 noundef %4, ptr noundef nonnull align 4 dereferenceable(4) %5)
          to label %42 unwind label %46

42:                                               ; preds = %_ZN12_GLOBAL__N_16selectERKN6icu_7711PluralRulesERKNS0_11FormattableERKNS0_12NumberFormatER10UErrorCode.exit
  %43 = load ptr, ptr %10, align 8, !tbaa !17
  call void asm sideeffect "", "rm,~{memory},~{dirflag},~{fpsr},~{flags}"(ptr %43) #14, !srcloc !20
  call void @_ZN6icu_7713UnicodeStringD1Ev(ptr noundef nonnull align 8 dereferenceable(64) %9) #14
  call void @llvm.lifetime.end.p0(i64 64, ptr nonnull %9) #14
  call void @_ZN6icu_7711FormattableD1Ev(ptr noundef nonnull align 8 dereferenceable(112) %8) #14
  call void @llvm.lifetime.end.p0(i64 112, ptr nonnull %8) #14
  br label %49

44:                                               ; preds = %39, %35, %27
  %45 = landingpad { ptr, i32 }
          cleanup
  br label %.body

46:                                               ; preds = %_ZN12_GLOBAL__N_16selectERKN6icu_7711PluralRulesERKNS0_11FormattableERKNS0_12NumberFormatER10UErrorCode.exit
  %47 = landingpad { ptr, i32 }
          cleanup
  %48 = load ptr, ptr %10, align 8, !tbaa !17
  call void asm sideeffect "", "rm,~{memory},~{dirflag},~{fpsr},~{flags}"(ptr %48) #14, !srcloc !20
  call void @_ZN6icu_7713UnicodeStringD1Ev(ptr noundef nonnull align 8 dereferenceable(64) %9) #14
  br label %.body

.body:                                            ; preds = %44, %32, %46
  %.pn = phi { ptr, i32 } [ %47, %46 ], [ %45, %44 ], [ %33, %32 ]
  call void @llvm.lifetime.end.p0(i64 64, ptr nonnull %9) #14
  call void @_ZN6icu_7711FormattableD1Ev(ptr noundef nonnull align 8 dereferenceable(112) %8) #14
  call void @llvm.lifetime.end.p0(i64 112, ptr nonnull %8) #14
  resume { ptr, i32 } %.pn

49:                                               ; preds = %21, %42, %6
  %.020 = phi i32 [ 0, %6 ], [ 0, %21 ], [ %41, %42 ]
  ret i32 %.020
}